; Function Attrs: mustprogress nounwind uwtable
define hidden void @_ZN10ciTypeFlow11StateVector6do_retEP16ciBytecodeStream(ptr nocapture noundef nonnull readonly align 8 dereferenceable(40) %0, ptr nocapture noundef readonly %1) local_unnamed_addr #0 align 2 {
  %3 = getelementptr inbounds i8, ptr %1, i64 56
  %4 = load ptr, ptr %3, align 8
  %5 = getelementptr inbounds i8, ptr %1, i64 24
  %6 = load ptr, ptr %5, align 8
  %7 = icmp eq ptr %4, %6
  %8 = getelementptr inbounds i8, ptr %1, i64 16
  %9 = load ptr, ptr %8, align 8
  %10 = load i8, ptr %9, align 1
  %.not.i.i.i.i.i = icmp eq i8 %10, -54
  br i1 %7, label %11, label %23

11:                                               ; preds = %2
  br i1 %.not.i.i.i.i.i, label %12, label %_ZNK16ciBytecodeStream12get_index_u2Eb.exit.i

12:                                               ; preds = %11
  %13 = tail call noundef i32 @_ZN9Bytecodes22non_breakpoint_code_atEPK6MethodPh(ptr noundef null, ptr noundef nonnull %9) #14
  br label %_ZNK16ciBytecodeStream12get_index_u2Eb.exit.i

_ZNK16ciBytecodeStream12get_index_u2Eb.exit.i:    ; preds = %12, %11
  %14 = getelementptr inbounds i8, ptr %1, i64 68
  %15 = load i32, ptr %14, align 4
  %16 = getelementptr inbounds i8, ptr %9, i64 2
  %17 = sext i32 %15 to i64
  %18 = getelementptr inbounds [512 x i16], ptr @_ZN9Bytecodes6_flagsE, i64 0, i64 %17
  %19 = load i16, ptr %18, align 2
  %20 = and i16 %19, 128
  %.not.i.i.i = icmp eq i16 %20, 0
  %.0.i.i.i.i.i.i = load i16, ptr %16, align 1
  %21 = tail call i16 @llvm.bswap.i16(i16 %.0.i.i.i.i.i.i)
  %.0.i.i.i = select i1 %.not.i.i.i, i16 %21, i16 %.0.i.i.i.i.i.i
  %22 = zext i16 %.0.i.i.i to i64
  br label %_ZNK16ciBytecodeStream9get_indexEv.exit

23:                                               ; preds = %2
  br i1 %.not.i.i.i.i.i, label %24, label %_ZNK16ciBytecodeStream12get_index_u1Ev.exit.i

24:                                               ; preds = %23
  %25 = tail call noundef i32 @_ZN9Bytecodes22non_breakpoint_code_atEPK6MethodPh(ptr noundef null, ptr noundef nonnull %9) #14
  br label %_ZNK16ciBytecodeStream12get_index_u1Ev.exit.i

_ZNK16ciBytecodeStream12get_index_u1Ev.exit.i:    ; preds = %24, %23
  %26 = getelementptr inbounds i8, ptr %9, i64 1
  %27 = load i8, ptr %26, align 1
  %28 = zext i8 %27 to i64
  br label %_ZNK16ciBytecodeStream9get_indexEv.exit

_ZNK16ciBytecodeStream9get_indexEv.exit:          ; preds = %_ZNK16ciBytecodeStream12get_index_u2Eb.exit.i, %_ZNK16ciBytecodeStream12get_index_u1Ev.exit.i
  %29 = phi i64 [ %22, %_ZNK16ciBytecodeStream12get_index_u2Eb.exit.i ], [ %28, %_ZNK16ciBytecodeStream12get_index_u1Ev.exit.i ]
  %30 = tail call noundef ptr @_ZN6ciType4makeE9BasicType(i8 noundef zeroext 19) #14
  %31 = load ptr, ptr %0, align 8
  %32 = getelementptr inbounds ptr, ptr %31, i64 %29
  store ptr %30, ptr %32, align 8
  ret void
}